; Function Attrs: nounwind uwtable
define internal noundef i32 @config_input_main(ptr noundef readonly captures(none) %0) #0 {
  %2 = getelementptr inbounds nuw i8, ptr %0, i64 16
  %3 = load ptr, ptr %2, align 8, !tbaa !29
  %4 = getelementptr inbounds nuw i8, ptr %3, i64 72
  %5 = load ptr, ptr %4, align 8, !tbaa !4
  %6 = getelementptr inbounds nuw i8, ptr %5, i64 12
  %7 = getelementptr inbounds nuw i8, ptr %0, i64 36
  %8 = load i32, ptr %7, align 4, !tbaa !36
  %9 = tail call i32 @ff_fill_rgba_map(ptr noundef nonnull %6, i32 noundef %8) #7
  %10 = icmp sgt i32 %9, -1
  br i1 %10, label %11, label %15

11:                                               ; preds = %1
  %12 = load i32, ptr %7, align 4, !tbaa !36
  %13 = icmp ne i32 %12, 111
  %14 = zext i1 %13 to i32
  br label %15

15:                                               ; preds = %11, %1
  %16 = phi i32 [ 0, %1 ], [ %14, %11 ]
  %17 = getelementptr inbounds nuw i8, ptr %5, i64 8
  store i32 %16, ptr %17, align 8, !tbaa !37
  ret i32 0
}